target datalayout = "e-m:e-p270:32:32-p271:32:32-p272:64:64-i64:64-i128:128-f80:128-n8:16:32:64-S128"
target triple = "x86_64-pc-linux-gnu"

%struct.ssl_st = type { i32, ptr, ptr, ptr, %struct.CRYPTO_REF_COUNT, ptr, %struct.crypto_ex_data_st }
%struct.CRYPTO_REF_COUNT = type { i32 }
%struct.crypto_ex_data_st = type { ptr, ptr }

@.str = private unnamed_addr constant [25 x i8] c"../openssl/ssl/ssl_lib.c\00", align 1
@__func__.SSL_get_value_uint = private unnamed_addr constant [19 x i8] c"SSL_get_value_uint\00", align 1

; Function Attrs: nounwind uwtable
define i32 @SSL_get_value_uint(ptr noundef %0, i32 noundef %1, i32 noundef %2, ptr noundef %3) #0 {
  %5 = alloca i32, align 4
  %6 = alloca ptr, align 8
  %7 = alloca i32, align 4
  %8 = alloca i32, align 4
  %9 = alloca ptr, align 8
  store ptr %0, ptr %6, align 8, !tbaa !16
  store i32 %1, ptr %7, align 4, !tbaa !14
  store i32 %2, ptr %8, align 4, !tbaa !14
  store ptr %3, ptr %9, align 8, !tbaa !12
  %10 = load ptr, ptr %6, align 8, !tbaa !16
  %11 = icmp ne ptr %10, null
  br i1 %11, label %12, label %24

12:                                               ; preds = %4
  %13 = load ptr, ptr %6, align 8, !tbaa !16
  %14 = getelementptr inbounds nuw %struct.ssl_st, ptr %13, i32 0, i32 0
  %15 = load i32, ptr %14, align 8, !tbaa !29
  %16 = and i32 %15, 128
  %17 = icmp ne i32 %16, 0
  br i1 %17, label %18, label %24

18:                                               ; preds = %12
  %19 = load ptr, ptr %6, align 8, !tbaa !16
  %20 = load i32, ptr %7, align 4, !tbaa !14
  %21 = load i32, ptr %8, align 4, !tbaa !14
  %22 = load ptr, ptr %9, align 8, !tbaa !12
  %23 = call i32 @ossl_quic_get_value_uint(ptr noundef %19, i32 noundef %20, i32 noundef %21, ptr noundef %22)
  store i32 %23, ptr %5, align 4
  br label %25

24:                                               ; preds = %12, %4
  call void @ERR_new()
  call void @ERR_set_debug(ptr noundef @.str, i32 noundef 7938, ptr noundef @__func__.SSL_get_value_uint)
  call void (i32, i32, ptr, ...) @ERR_set_error(i32 noundef 20, i32 noundef 258, ptr noundef null)
  store i32 0, ptr %5, align 4
  br label %25

25:                                               ; preds = %24, %18
  %26 = load i32, ptr %5, align 4
  ret i32 %26
}