; Function Attrs: nounwind uwtable
define i32 @SSL_get_value_uint(ptr noundef %0, i32 noundef %1, i32 noundef %2, ptr noundef %3) local_unnamed_addr #0 {
  %.not = icmp eq ptr %0, null
  br i1 %.not, label %10, label %5

5:                                                ; preds = %4
  %6 = load i32, ptr %0, align 8, !tbaa !19
  %7 = and i32 %6, 128
  %.not7 = icmp eq i32 %7, 0
  br i1 %.not7, label %10, label %8

8:                                                ; preds = %5
  %9 = tail call i32 @ossl_quic_get_value_uint(ptr noundef nonnull %0, i32 noundef %1, i32 noundef %2, ptr noundef %3) #20
  br label %11

10:                                               ; preds = %5, %4
  tail call void @ERR_new() #20
  tail call void @ERR_set_debug(ptr noundef nonnull @.str, i32 noundef 7938, ptr noundef nonnull @__func__.SSL_get_value_uint) #20
  tail call void (i32, i32, ptr, ...) @ERR_set_error(i32 noundef 20, i32 noundef 258, ptr noundef null) #20
  br label %11

11:                                               ; preds = %10, %8
  %.0 = phi i32 [ %9, %8 ], [ 0, %10 ]
  ret i32 %.0
}